target datalayout = "e-m:e-p270:32:32-p271:32:32-p272:64:64-i64:64-i128:128-f80:128-n8:16:32:64-S128"
target triple = "x86_64-pc-linux-gnu"

%struct.curve448_scalar_s = type { [7 x i64] }
%struct.curve448_point_s = type { [1 x %struct.gf_s], [1 x %struct.gf_s], [1 x %struct.gf_s], [1 x %struct.gf_s] }
%struct.gf_s = type { [8 x i64] }

@ossl_c448_ed448_verify.order = internal constant [57 x i8] c"\F3DX\AB\92\C2x#U\8F\C5\8Dr\C2l!\906\D6\AEI\DBN\C4\E9#\CA|\FF\FF\FF\FF\FF\FF\FF\FF\FF\FF\FF\FF\FF\FF\FF\FF\FF\FF\FF\FF\FF\FF\FF\FF\FF\FF\FF?\00", align 16
@ossl_curve448_scalar_zero = external constant [1 x %struct.curve448_scalar_s], align 16

; Function Attrs: inlinehint nounwind uwtable
define internal i32 @c448_succeed_if(i64 noundef %0) #5 {
  %2 = alloca i64, align 8
  store i64 %0, ptr %2, align 8, !tbaa !10
  %3 = load i64, ptr %2, align 8, !tbaa !10
  %4 = trunc i64 %3 to i32
  ret i32 %4
}

; Function Attrs: nounwind uwtable
define i32 @ossl_c448_ed448_verify(ptr noundef %0, ptr noundef %1, ptr noundef %2, ptr noundef %3, i64 noundef %4, i8 noundef zeroext %5, ptr noundef %6, i8 noundef zeroext %7, ptr noundef %8) #0 {
  %10 = alloca i32, align 4
  %11 = alloca ptr, align 8
  %12 = alloca ptr, align 8
  %13 = alloca ptr, align 8
  %14 = alloca ptr, align 8
  %15 = alloca i64, align 8
  %16 = alloca i8, align 1
  %17 = alloca ptr, align 8
  %18 = alloca i8, align 1
  %19 = alloca ptr, align 8
  %20 = alloca [1 x %struct.curve448_point_s], align 16
  %21 = alloca [1 x %struct.curve448_point_s], align 16
  %22 = alloca i32, align 4
  %23 = alloca [1 x %struct.curve448_scalar_s], align 16
  %24 = alloca [1 x %struct.curve448_scalar_s], align 16
  %25 = alloca i32, align 4
  %26 = alloca i32, align 4
  %27 = alloca ptr, align 8
  %28 = alloca [114 x i8], align 16
  store ptr %0, ptr %11, align 8, !tbaa !3
  store ptr %1, ptr %12, align 8, !tbaa !8
  store ptr %2, ptr %13, align 8, !tbaa !8
  store ptr %3, ptr %14, align 8, !tbaa !8
  store i64 %4, ptr %15, align 8, !tbaa !10
  store i8 %5, ptr %16, align 1, !tbaa !22
  store ptr %6, ptr %17, align 8, !tbaa !8
  store i8 %7, ptr %18, align 1, !tbaa !22
  store ptr %8, ptr %19, align 8, !tbaa !8
  call void @llvm.lifetime.start.p0(i64 256, ptr %20) #6
  call void @llvm.lifetime.start.p0(i64 256, ptr %21) #6
  call void @llvm.lifetime.start.p0(i64 4, ptr %22) #6
  call void @llvm.lifetime.start.p0(i64 56, ptr %23) #6
  call void @llvm.lifetime.start.p0(i64 56, ptr %24) #6
  call void @llvm.lifetime.start.p0(i64 4, ptr %25) #6
  store i32 56, ptr %25, align 4, !tbaa !16
  br label %29

29:                                               ; preds = %63, %9
  %30 = load i32, ptr %25, align 4, !tbaa !16
  %31 = icmp sge i32 %30, 0
  br i1 %31, label %32, label %66

32:                                               ; preds = %29
  %33 = load ptr, ptr %12, align 8, !tbaa !8
  %34 = load i32, ptr %25, align 4, !tbaa !16
  %35 = add nsw i32 %34, 57
  %36 = sext i32 %35 to i64
  %37 = getelementptr inbounds i8, ptr %33, i64 %36
  %38 = load i8, ptr %37, align 1, !tbaa !22
  %39 = zext i8 %38 to i32
  %40 = load i32, ptr %25, align 4, !tbaa !16
  %41 = sext i32 %40 to i64
  %42 = getelementptr inbounds [57 x i8], ptr @ossl_c448_ed448_verify.order, i64 0, i64 %41
  %43 = load i8, ptr %42, align 1, !tbaa !22
  %44 = zext i8 %43 to i32
  %45 = icmp sgt i32 %39, %44
  br i1 %45, label %46, label %47

46:                                               ; preds = %32
  store i32 0, ptr %10, align 4
  store i32 1, ptr %26, align 4
  br label %144

47:                                               ; preds = %32
  %48 = load ptr, ptr %12, align 8, !tbaa !8
  %49 = load i32, ptr %25, align 4, !tbaa !16
  %50 = add nsw i32 %49, 57
  %51 = sext i32 %50 to i64
  %52 = getelementptr inbounds i8, ptr %48, i64 %51
  %53 = load i8, ptr %52, align 1, !tbaa !22
  %54 = zext i8 %53 to i32
  %55 = load i32, ptr %25, align 4, !tbaa !16
  %56 = sext i32 %55 to i64
  %57 = getelementptr inbounds [57 x i8], ptr @ossl_c448_ed448_verify.order, i64 0, i64 %56
  %58 = load i8, ptr %57, align 1, !tbaa !22
  %59 = zext i8 %58 to i32
  %60 = icmp slt i32 %54, %59
  br i1 %60, label %61, label %62

61:                                               ; preds = %47
  br label %66

62:                                               ; preds = %47
  br label %63

63:                                               ; preds = %62
  %64 = load i32, ptr %25, align 4, !tbaa !16
  %65 = add nsw i32 %64, -1
  store i32 %65, ptr %25, align 4, !tbaa !16
  br label %29, !llvm.loop !24

66:                                               ; preds = %61, %29
  %67 = load i32, ptr %25, align 4, !tbaa !16
  %68 = icmp slt i32 %67, 0
  br i1 %68, label %69, label %70

69:                                               ; preds = %66
  store i32 0, ptr %10, align 4
  store i32 1, ptr %26, align 4
  br label %144

70:                                               ; preds = %66
  %71 = getelementptr inbounds [1 x %struct.curve448_point_s], ptr %20, i64 0, i64 0
  %72 = load ptr, ptr %13, align 8, !tbaa !8
  %73 = call i32 @ossl_curve448_point_decode_like_eddsa_and_mul_by_ratio(ptr noundef %71, ptr noundef %72)
  store i32 %73, ptr %22, align 4, !tbaa !16
  %74 = load i32, ptr %22, align 4, !tbaa !16
  %75 = icmp ne i32 -1, %74
  br i1 %75, label %76, label %78

76:                                               ; preds = %70
  %77 = load i32, ptr %22, align 4, !tbaa !16
  store i32 %77, ptr %10, align 4
  store i32 1, ptr %26, align 4
  br label %144

78:                                               ; preds = %70
  %79 = getelementptr inbounds [1 x %struct.curve448_point_s], ptr %21, i64 0, i64 0
  %80 = load ptr, ptr %12, align 8, !tbaa !8
  %81 = call i32 @ossl_curve448_point_decode_like_eddsa_and_mul_by_ratio(ptr noundef %79, ptr noundef %80)
  store i32 %81, ptr %22, align 4, !tbaa !16
  %82 = load i32, ptr %22, align 4, !tbaa !16
  %83 = icmp ne i32 -1, %82
  br i1 %83, label %84, label %86

84:                                               ; preds = %78
  %85 = load i32, ptr %22, align 4, !tbaa !16
  store i32 %85, ptr %10, align 4
  store i32 1, ptr %26, align 4
  br label %144

86:                                               ; preds = %78
  call void @llvm.lifetime.start.p0(i64 8, ptr %27) #6
  %87 = call ptr @EVP_MD_CTX_new()
  store ptr %87, ptr %27, align 8, !tbaa !12
  call void @llvm.lifetime.start.p0(i64 114, ptr %28) #6
  %88 = load ptr, ptr %27, align 8, !tbaa !12
  %89 = icmp eq ptr %88, null
  br i1 %89, label %121, label %90

90:                                               ; preds = %86
  %91 = load ptr, ptr %11, align 8, !tbaa !3
  %92 = load ptr, ptr %27, align 8, !tbaa !12
  %93 = load i8, ptr %16, align 1, !tbaa !22
  %94 = load ptr, ptr %17, align 8, !tbaa !8
  %95 = load i8, ptr %18, align 1, !tbaa !22
  %96 = zext i8 %95 to i64
  %97 = load ptr, ptr %19, align 8, !tbaa !8
  %98 = call i32 @hash_init_with_dom(ptr noundef %91, ptr noundef %92, i8 noundef zeroext %93, i8 noundef zeroext 0, ptr noundef %94, i64 noundef %96, ptr noundef %97)
  %99 = icmp ne i32 %98, 0
  br i1 %99, label %100, label %121

100:                                              ; preds = %90
  %101 = load ptr, ptr %27, align 8, !tbaa !12
  %102 = load ptr, ptr %12, align 8, !tbaa !8
  %103 = call i32 @EVP_DigestUpdate(ptr noundef %101, ptr noundef %102, i64 noundef 57)
  %104 = icmp ne i32 %103, 0
  br i1 %104, label %105, label %121

105:                                              ; preds = %100
  %106 = load ptr, ptr %27, align 8, !tbaa !12
  %107 = load ptr, ptr %13, align 8, !tbaa !8
  %108 = call i32 @EVP_DigestUpdate(ptr noundef %106, ptr noundef %107, i64 noundef 57)
  %109 = icmp ne i32 %108, 0
  br i1 %109, label %110, label %121

110:                                              ; preds = %105
  %111 = load ptr, ptr %27, align 8, !tbaa !12
  %112 = load ptr, ptr %14, align 8, !tbaa !8
  %113 = load i64, ptr %15, align 8, !tbaa !10
  %114 = call i32 @EVP_DigestUpdate(ptr noundef %111, ptr noundef %112, i64 noundef %113)
  %115 = icmp ne i32 %114, 0
  br i1 %115, label %116, label %121

116:                                              ; preds = %110
  %117 = load ptr, ptr %27, align 8, !tbaa !12
  %118 = getelementptr inbounds [114 x i8], ptr %28, i64 0, i64 0
  %119 = call i32 @EVP_DigestFinalXOF(ptr noundef %117, ptr noundef %118, i64 noundef 114)
  %120 = icmp ne i32 %119, 0
  br i1 %120, label %123, label %121

121:                                              ; preds = %116, %110, %105, %100, %90, %86
  %122 = load ptr, ptr %27, align 8, !tbaa !12
  call void @EVP_MD_CTX_free(ptr noundef %122)
  store i32 0, ptr %10, align 4
  store i32 1, ptr %26, align 4
  br label %128

123:                                              ; preds = %116
  %124 = load ptr, ptr %27, align 8, !tbaa !12
  call void @EVP_MD_CTX_free(ptr noundef %124)
  %125 = getelementptr inbounds [1 x %struct.curve448_scalar_s], ptr %23, i64 0, i64 0
  %126 = getelementptr inbounds [114 x i8], ptr %28, i64 0, i64 0
  call void @ossl_curve448_scalar_decode_long(ptr noundef %125, ptr noundef %126, i64 noundef 114)
  %127 = getelementptr inbounds [114 x i8], ptr %28, i64 0, i64 0
  call void @OPENSSL_cleanse(ptr noundef %127, i64 noundef 114)
  store i32 0, ptr %26, align 4
  br label %128

128:                                              ; preds = %123, %121
  call void @llvm.lifetime.end.p0(i64 114, ptr %28) #6
  call void @llvm.lifetime.end.p0(i64 8, ptr %27) #6
  %129 = load i32, ptr %26, align 4
  switch i32 %129, label %144 [
    i32 0, label %130
  ]

130:                                              ; preds = %128
  %131 = getelementptr inbounds [1 x %struct.curve448_scalar_s], ptr %23, i64 0, i64 0
  %132 = getelementptr inbounds [1 x %struct.curve448_scalar_s], ptr %23, i64 0, i64 0
  call void @ossl_curve448_scalar_sub(ptr noundef %131, ptr noundef @ossl_curve448_scalar_zero, ptr noundef %132)
  %133 = getelementptr inbounds [1 x %struct.curve448_scalar_s], ptr %24, i64 0, i64 0
  %134 = load ptr, ptr %12, align 8, !tbaa !8
  %135 = getelementptr inbounds i8, ptr %134, i64 57
  call void @ossl_curve448_scalar_decode_long(ptr noundef %133, ptr noundef %135, i64 noundef 57)
  %136 = getelementptr inbounds [1 x %struct.curve448_point_s], ptr %20, i64 0, i64 0
  %137 = getelementptr inbounds [1 x %struct.curve448_scalar_s], ptr %24, i64 0, i64 0
  %138 = getelementptr inbounds [1 x %struct.curve448_point_s], ptr %20, i64 0, i64 0
  %139 = getelementptr inbounds [1 x %struct.curve448_scalar_s], ptr %23, i64 0, i64 0
  call void @ossl_curve448_base_double_scalarmul_non_secret(ptr noundef %136, ptr noundef %137, ptr noundef %138, ptr noundef %139)
  %140 = getelementptr inbounds [1 x %struct.curve448_point_s], ptr %20, i64 0, i64 0
  %141 = getelementptr inbounds [1 x %struct.curve448_point_s], ptr %21, i64 0, i64 0
  %142 = call i64 @ossl_curve448_point_eq(ptr noundef %140, ptr noundef %141)
  %143 = call i32 @c448_succeed_if(i64 noundef %142)
  store i32 %143, ptr %10, align 4
  store i32 1, ptr %26, align 4
  br label %144

144:                                              ; preds = %130, %128, %84, %76, %69, %46
  call void @llvm.lifetime.end.p0(i64 4, ptr %25) #6
  call void @llvm.lifetime.end.p0(i64 56, ptr %24) #6
  call void @llvm.lifetime.end.p0(i64 56, ptr %23) #6
  call void @llvm.lifetime.end.p0(i64 4, ptr %22) #6
  call void @llvm.lifetime.end.p0(i64 256, ptr %21) #6
  call void @llvm.lifetime.end.p0(i64 256, ptr %20) #6
  %145 = load i32, ptr %10, align 4
  ret i32 %145
}